target datalayout = "e-m:e-p270:32:32-p271:32:32-p272:64:64-i64:64-i128:128-f80:128-n8:16:32:64-S128"
target triple = "x86_64-pc-linux-gnu"

%class.OopHandle = type { ptr }
%class.ClassLoaderData = type { %class.WeakHandle, %class.OopHandle, ptr, ptr, i8, i8, i8, i32, i32, %"class.ClassLoaderData::ChunkedHandleList", ptr, ptr, ptr, ptr, ptr, ptr, ptr, ptr, ptr, ptr, ptr, ptr, i64 }
%class.WeakHandle = type { ptr }
%"class.ClassLoaderData::ChunkedHandleList" = type { ptr }

@.str.11 = private unnamed_addr constant [10 x i8] c"bootstrap\00", align 1

; Function Attrs: mustprogress nounwind uwtable
define hidden noundef ptr @_ZNK15ClassLoaderData11loader_nameEv(ptr noundef nonnull align 8 dereferenceable(160) %0) #1 align 2 {
  %2 = alloca ptr, align 8
  %3 = alloca ptr, align 8
  store ptr %0, ptr %3, align 8
  %4 = load ptr, ptr %3, align 8
  %5 = getelementptr inbounds %class.ClassLoaderData, ptr %4, i32 0, i32 19
  %6 = load ptr, ptr %5, align 8
  %7 = icmp eq ptr %6, null
  br i1 %7, label %8, label %9

8:                                                ; preds = %1
  store ptr @.str.11, ptr %2, align 8
  br label %21

9:                                                ; preds = %1
  %10 = getelementptr inbounds %class.ClassLoaderData, ptr %4, i32 0, i32 20
  %11 = load ptr, ptr %10, align 8
  %12 = icmp ne ptr %11, null
  br i1 %12, label %13, label %17

13:                                               ; preds = %9
  %14 = getelementptr inbounds %class.ClassLoaderData, ptr %4, i32 0, i32 20
  %15 = load ptr, ptr %14, align 8
  %16 = call noundef ptr @_ZNK6Symbol11as_C_stringEv(ptr noundef nonnull align 4 dereferenceable(8) %15)
  store ptr %16, ptr %2, align 8
  br label %21

17:                                               ; preds = %9
  %18 = getelementptr inbounds %class.ClassLoaderData, ptr %4, i32 0, i32 19
  %19 = load ptr, ptr %18, align 8
  %20 = call noundef ptr @_ZNK5Klass13external_nameEv(ptr noundef nonnull align 8 dereferenceable(196) %19)
  store ptr %20, ptr %2, align 8
  br label %21

21:                                               ; preds = %17, %13, %8
  %22 = load ptr, ptr %2, align 8
  ret ptr %22
}