; Function Attrs: mustprogress nounwind uwtable
define hidden noundef ptr @_ZNK15ClassLoaderData11loader_nameEv(ptr nocapture noundef nonnull readonly align 8 dereferenceable(160) %0) local_unnamed_addr #0 align 2 {
  %2 = getelementptr inbounds i8, ptr %0, i64 128
  %3 = load ptr, ptr %2, align 8
  %4 = icmp eq ptr %3, null
  br i1 %4, label %12, label %5

5:                                                ; preds = %1
  %6 = getelementptr inbounds i8, ptr %0, i64 136
  %7 = load ptr, ptr %6, align 8
  %.not = icmp eq ptr %7, null
  br i1 %.not, label %10, label %8

8:                                                ; preds = %5
  %9 = tail call noundef ptr @_ZNK6Symbol11as_C_stringEv(ptr noundef nonnull align 4 dereferenceable(8) %7) #16
  br label %12

10:                                               ; preds = %5
  %11 = tail call noundef ptr @_ZNK5Klass13external_nameEv(ptr noundef nonnull align 8 dereferenceable(196) %3) #16
  br label %12

12:                                               ; preds = %1, %10, %8
  %.0 = phi ptr [ %9, %8 ], [ %11, %10 ], [ @.str.11, %1 ]
  ret ptr %.0
}